target datalayout = "e-m:e-p270:32:32-p271:32:32-p272:64:64-i64:64-i128:128-f80:128-n8:16:32:64-S128"
target triple = "x86_64-pc-linux-gnu"

; Function Attrs: nounwind uwtable
define hidden i32 @exr_attr_chlist_add(ptr noundef %0, ptr noundef %1, ptr noundef %2, i32 noundef %3, i32 noundef %4, i32 noundef %5, i32 noundef %6) #0 {
  %8 = alloca ptr, align 8
  %9 = alloca ptr, align 8
  %10 = alloca ptr, align 8
  %11 = alloca i32, align 4
  %12 = alloca i32, align 4
  %13 = alloca i32, align 4
  %14 = alloca i32, align 4
  %15 = alloca i32, align 4
  store ptr %0, ptr %8, align 8, !tbaa !3
  store ptr %1, ptr %9, align 8, !tbaa !8
  store ptr %2, ptr %10, align 8, !tbaa !33
  store i32 %3, ptr %11, align 4, !tbaa !9
  store i32 %4, ptr %12, align 4, !tbaa !9
  store i32 %5, ptr %13, align 4, !tbaa !9
  store i32 %6, ptr %14, align 4, !tbaa !9
  call void @llvm.lifetime.start.p0(i64 4, ptr %15) #6
  store i32 0, ptr %15, align 4, !tbaa !9
  %16 = load ptr, ptr %10, align 8, !tbaa !33
  %17 = icmp ne ptr %16, null
  br i1 %17, label %18, label %22

18:                                               ; preds = %7
  %19 = load ptr, ptr %10, align 8, !tbaa !33
  %20 = call i64 @strlen(ptr noundef %19) #7
  %21 = trunc i64 %20 to i32
  store i32 %21, ptr %15, align 4, !tbaa !9
  br label %22

22:                                               ; preds = %18, %7
  %23 = load ptr, ptr %8, align 8, !tbaa !3
  %24 = load ptr, ptr %9, align 8, !tbaa !8
  %25 = load ptr, ptr %10, align 8, !tbaa !33
  %26 = load i32, ptr %15, align 4, !tbaa !9
  %27 = load i32, ptr %11, align 4, !tbaa !9
  %28 = load i32, ptr %12, align 4, !tbaa !9
  %29 = load i32, ptr %13, align 4, !tbaa !9
  %30 = load i32, ptr %14, align 4, !tbaa !9
  %31 = call i32 @exr_attr_chlist_add_with_length(ptr noundef %23, ptr noundef %24, ptr noundef %25, i32 noundef %26, i32 noundef %27, i32 noundef %28, i32 noundef %29, i32 noundef %30)
  call void @llvm.lifetime.end.p0(i64 4, ptr %15) #6
  ret i32 %31
}