; Function Attrs: nounwind uwtable
define hidden i32 @exr_attr_chlist_add(ptr noundef %0, ptr noundef %1, ptr noundef %2, i32 noundef %3, i32 noundef %4, i32 noundef %5, i32 noundef %6) local_unnamed_addr #0 {
  %.not = icmp eq ptr %2, null
  br i1 %.not, label %.split, label %.split10

.split:                                           ; preds = %7
  %.not.i = icmp eq ptr %0, null
  br i1 %.not.i, label %exr_attr_chlist_add_with_length.exit, label %8

8:                                                ; preds = %.split
  %.not144.i = icmp eq ptr %1, null
  br i1 %.not144.i, label %9, label %13

9:                                                ; preds = %8
  %10 = getelementptr inbounds nuw i8, ptr %0, i64 64
  %11 = load ptr, ptr %10, align 8, !tbaa !3
  %12 = tail call i32 %11(ptr noundef nonnull %0, i32 noundef 3, ptr noundef nonnull @.str) #6
  br label %exr_attr_chlist_add_with_length.exit

13:                                               ; preds = %8
  %14 = getelementptr inbounds nuw i8, ptr %0, i64 72
  %15 = load ptr, ptr %14, align 8, !tbaa !22
  %16 = tail call i32 (ptr, i32, ptr, ...) %15(ptr noundef nonnull %0, i32 noundef 3, ptr noundef nonnull @.str.2, ptr noundef nonnull @.str.3) #6
  br label %exr_attr_chlist_add_with_length.exit

.split10:                                         ; preds = %7
  %17 = tail call i64 @strlen(ptr noundef nonnull dereferenceable(1) %2) #7
  %18 = trunc i64 %17 to i32
  %19 = tail call i32 @exr_attr_chlist_add_with_length(ptr noundef %0, ptr noundef %1, ptr noundef nonnull %2, i32 noundef %18, i32 noundef %3, i32 noundef %4, i32 noundef %5, i32 noundef %6)
  br label %exr_attr_chlist_add_with_length.exit

exr_attr_chlist_add_with_length.exit:             ; preds = %13, %9, %.split, %.split10
  %phi.call = phi i32 [ %19, %.split10 ], [ %16, %13 ], [ %12, %9 ], [ 2, %.split ]
  ret i32 %phi.call
}